target datalayout = "e-m:e-p270:32:32-p271:32:32-p272:64:64-i64:64-i128:128-f80:128-n8:16:32:64-S128"
target triple = "x86_64-pc-linux-gnu"

%class.G1CMIsAliveClosure = type { %class.BoolObjectClosure, ptr }
%class.BoolObjectClosure = type { ptr }
%class.G1ConcurrentMark = type <{ ptr, ptr, %class.G1CMBitMap, %class.MemRegion, %class.G1CMRootMemRegions, %class.G1CMMarkStack, ptr, i32, i32, i32, [4 x i8], ptr, ptr, %class.TaskTerminator, %class.WorkerThreadsBarrierSync, %class.WorkerThreadsBarrierSync, i32, i8, i8, i8, i8, ptr, ptr, %class.NumberSeq, %class.NumberSeq, %class.NumberSeq, %class.NumberSeq, ptr, ptr, i32, i32, ptr, ptr, ptr, i8, [7 x i8] }>
%class.G1CMBitMap = type { %class.MarkBitMap, %class.G1CMBitMapMappingChangedListener }
%class.MarkBitMap = type { ptr, %class.MemRegion, i32, %class.BitMapView }
%class.BitMapView = type { %class.BitMap }
%class.BitMap = type { ptr, i64 }
%class.G1CMBitMapMappingChangedListener = type { %class.G1MappingChangedListener, ptr }
%class.G1MappingChangedListener = type { ptr }
%class.MemRegion = type { ptr, i64 }
%class.G1CMRootMemRegions = type <{ ptr, i64, i64, i64, i8, i8, [6 x i8] }>
%class.G1CMMarkStack = type { %"class.G1CMMarkStack::ChunkAllocator", [128 x i8], ptr, [120 x i8], ptr, i64, [112 x i8] }
%"class.G1CMMarkStack::ChunkAllocator" = type { i64, i64, i64, i64, i8, ptr, [128 x i8], i64, [120 x i8] }
%class.TaskTerminator = type { i32, ptr, [128 x i8], i32, [124 x i8], %class.Monitor, ptr }
%class.Monitor = type { %class.Mutex }
%class.Mutex = type { ptr, %class.PlatformMonitor, ptr }
%class.PlatformMonitor = type { %class.PlatformMutex, %union.pthread_cond_t }
%class.PlatformMutex = type { %union.pthread_mutex_t }
%union.pthread_mutex_t = type { %struct.__pthread_mutex_s }
%struct.__pthread_mutex_s = type { i32, i32, i32, i32, i32, i16, i16, %struct.__pthread_internal_list }
%struct.__pthread_internal_list = type { ptr, ptr }
%union.pthread_cond_t = type { %struct.__pthread_cond_s }
%struct.__pthread_cond_s = type { %union.__atomic_wide_counter, %union.__atomic_wide_counter, [2 x i32], [2 x i32], i32, i32, [2 x i32] }
%union.__atomic_wide_counter = type { i64 }
%class.WorkerThreadsBarrierSync = type <{ %class.Monitor, i32, i32, i8, i8, [6 x i8] }>
%class.NumberSeq = type { %class.AbsSeq, double, double }
%class.AbsSeq = type { ptr, i32, double, double, double, double, double }
%class.G1CMSubjectToDiscoveryClosure = type { %class.BoolObjectClosure, ptr }
%class.G1STWIsAliveClosure = type { %class.BoolObjectClosure, ptr }
%class.TimeInstant = type { %class.CompositeCounterRepresentation }
%class.CompositeCounterRepresentation = type { %class.Representation }
%class.Representation = type { %class.PairRep }
%class.PairRep = type { i64, i64 }
%class.G1CMTask = type { %class.TerminatorTerminator, %class.G1CMObjArrayProcessor, i32, ptr, ptr, ptr, ptr, %class.G1RegionMarkStatsCache, i32, double, double, ptr, ptr, ptr, ptr, i64, i64, i64, i64, i64, i64, i8, i8, i8, %class.NumberSeq, double, double, %class.TruncatedSeq }
%class.TerminatorTerminator = type { ptr }
%class.G1CMObjArrayProcessor = type { ptr }
%class.G1RegionMarkStatsCache = type { ptr, ptr, i32, i64, i64, i64 }
%class.TruncatedSeq = type { %class.AbsSeq, ptr, i32, i32 }
%class.G1CollectedHeap = type { %class.CollectedHeap, ptr, ptr, ptr, ptr, ptr, %class.TimeInstant, %class.G1HeapRegionSet, %class.G1HeapRegionSet, %class.G1MonotonicArenaMemoryStats, %class.G1MonotonicArenaMemoryStats, ptr, %class.G1RegionMappingChangedListener, ptr, %class.G1HeapRegionManager, ptr, %class.G1YoungGCAllocationFailureInjector, ptr, i64, i64, %class.G1EvacStats, %class.G1EvacStats, ptr, i32, i32, %class.G1CollectorState, i32, i32, %class.G1EdenRegions, %class.G1SurvivorRegions, ptr, ptr, ptr, ptr, %class.G1CollectionSet, ptr, %class.G1CardSetConfiguration, %class.G1MonotonicArenaFreePool, ptr, ptr, ptr, ptr, ptr, %class.G1STWIsAliveClosure, %class.G1STWSubjectToDiscoveryClosure, ptr, %class.G1CMIsAliveClosure, %class.G1CMSubjectToDiscoveryClosure, %class.G1HeapRegionAttrBiasedMappedArray }
%class.CollectedHeap = type { ptr, ptr, i64, i64, %class.SoftRefPolicy, %class.MemRegion, i8, i64, i32, i32, i32, i32, ptr, ptr }
%class.SoftRefPolicy = type { i8, i8 }
%class.G1HeapRegionSet = type { %class.G1HeapRegionSetBase.base, [7 x i8] }
%class.G1HeapRegionSetBase.base = type <{ ptr, ptr, i32, [4 x i8], ptr, i8 }>
%class.G1MonotonicArenaMemoryStats = type { [4 x i64], [4 x i64] }
%class.G1RegionMappingChangedListener = type { %class.G1MappingChangedListener }
%class.G1HeapRegionManager = type { ptr, ptr, %class.G1CommittedRegionMap, i32, [4 x i8], %class.G1HeapRegionTable, ptr, ptr, %class.G1FreeRegionList }
%class.G1CommittedRegionMap = type { ptr, %class.CHeapBitMap, %class.CHeapBitMap, i32, i32 }
%class.CHeapBitMap = type <{ %class.GrowableBitMap, i8, [7 x i8] }>
%class.GrowableBitMap = type { %class.BitMap }
%class.G1HeapRegionTable = type { %class.G1BiasedMappedArray.base, [4 x i8] }
%class.G1BiasedMappedArray.base = type { %class.G1BiasedMappedArrayBase.base }
%class.G1BiasedMappedArrayBase.base = type <{ ptr, ptr, ptr, i64, ptr, i64, i32 }>
%class.G1FreeRegionList = type { %class.G1HeapRegionSetBase.base, ptr, ptr, ptr, ptr }
%class.G1YoungGCAllocationFailureInjector = type { i8 }
%class.G1EvacStats = type { %class.PLABStats, i64, i64, %class.AdaptiveWeightedAverage, i64, i32, i64, i64, i64, i64, i64 }
%class.PLABStats = type { ptr, ptr, i64, i64, i64, i64 }
%class.AdaptiveWeightedAverage = type { float, i32, i32, i8, float }
%class.G1CollectorState = type { i8, i8, i8, i8, i8, i8, i8 }
%class.G1EdenRegions = type { i32, i64, %class.G1RegionsOnNodes }
%class.G1RegionsOnNodes = type { ptr, ptr }
%class.G1SurvivorRegions = type { ptr, i64, %class.G1RegionsOnNodes }
%class.G1CollectionSet = type { ptr, ptr, %class.G1CollectionSetCandidates, ptr, i32, i32, i32, i32, i32, %class.G1CollectionCandidateRegionList, i32, i64 }
%class.G1CollectionSetCandidates = type { [8 x i8], %class.G1CollectionCandidateList, %class.G1CollectionCandidateList, ptr, i32, i32 }
%class.G1CollectionCandidateList = type { %class.GrowableArray }
%class.GrowableArray = type { %class.GrowableArrayWithAllocator, %class.GrowableArrayMetadata }
%class.GrowableArrayWithAllocator = type { %class.GrowableArrayView }
%class.GrowableArrayView = type { %class.GrowableArrayBase, ptr }
%class.GrowableArrayBase = type { i32, i32 }
%class.GrowableArrayMetadata = type { i64 }
%class.G1CollectionCandidateRegionList = type { %class.GrowableArray.2 }
%class.GrowableArray.2 = type { %class.GrowableArrayWithAllocator.3, %class.GrowableArrayMetadata }
%class.GrowableArrayWithAllocator.3 = type { %class.GrowableArrayView.4 }
%class.GrowableArrayView.4 = type { %class.GrowableArrayBase, ptr }
%class.G1CardSetConfiguration = type { i32, i32, i32, i32, i32, i32, i32, i32, i32, i32, i32, ptr }
%class.G1MonotonicArenaFreePool = type { i32, ptr }
%class.G1STWSubjectToDiscoveryClosure = type { %class.BoolObjectClosure, ptr }
%class.G1HeapRegionAttrBiasedMappedArray = type { %class.G1BiasedMappedArray.base.6, [4 x i8] }
%class.G1BiasedMappedArray.base.6 = type { %class.G1BiasedMappedArrayBase.base }
%struct.G1RegionMarkStats = type { i64 }
%class.G1BiasedMappedArrayBase = type <{ ptr, ptr, ptr, i64, ptr, i64, i32, [4 x i8] }>

@g_assert_poison = external global ptr, align 8
@.str = private unnamed_addr constant [45 x i8] c"src/hotspot/share/gc/g1/g1ConcurrentMark.cpp\00", align 1
@.str.23 = private unnamed_addr constant [10 x i8] c"invariant\00", align 1
@.str.69 = private unnamed_addr constant [41 x i8] c"guarantee(mark_bitmap != nullptr) failed\00", align 1

; Function Attrs: mustprogress nounwind uwtable
define linkonce_odr hidden noundef i64 @_ZNK23G1BiasedMappedArrayBase6lengthEv(ptr noundef nonnull align 8 dereferenceable(52) %0) #1 comdat align 2 {
  %2 = alloca ptr, align 8
  store ptr %0, ptr %2, align 8
  %3 = load ptr, ptr %2, align 8
  %4 = getelementptr inbounds %class.G1BiasedMappedArrayBase, ptr %3, i32 0, i32 3
  %5 = load i64, ptr %4, align 8
  ret i64 %5
}

; Function Attrs: mustprogress nounwind uwtable
define linkonce_odr hidden noundef i32 @_ZNK19G1HeapRegionManager15reserved_lengthEv(ptr noundef nonnull align 8 dereferenceable(232) %0) #1 comdat align 2 {
  %2 = alloca ptr, align 8
  store ptr %0, ptr %2, align 8
  %3 = load ptr, ptr %2, align 8
  %4 = getelementptr inbounds %class.G1HeapRegionManager, ptr %3, i32 0, i32 5
  %5 = call noundef i64 @_ZNK23G1BiasedMappedArrayBase6lengthEv(ptr noundef nonnull align 8 dereferenceable(52) %4)
  %6 = trunc i64 %5 to i32
  ret i32 %6
}

; Function Attrs: mustprogress nounwind uwtable
define hidden void @_ZN8G1CMTask19clear_region_fieldsEv(ptr noundef nonnull align 8 dereferenceable(376) %0) #1 align 2 {
  %2 = alloca ptr, align 8
  store ptr %0, ptr %2, align 8
  %3 = load ptr, ptr %2, align 8
  %4 = getelementptr inbounds %class.G1CMTask, ptr %3, i32 0, i32 12
  store ptr null, ptr %4, align 8
  %5 = getelementptr inbounds %class.G1CMTask, ptr %3, i32 0, i32 13
  store ptr null, ptr %5, align 8
  %6 = getelementptr inbounds %class.G1CMTask, ptr %3, i32 0, i32 14
  store ptr null, ptr %6, align 8
  ret void
}

; Function Attrs: mustprogress nounwind uwtable
define hidden void @_ZN18G1CMRootMemRegions5resetEv(ptr noundef nonnull align 8 dereferenceable(34) %0) #1 align 2 {
  %2 = alloca ptr, align 8
  store ptr %0, ptr %2, align 8
  %3 = load ptr, ptr %2, align 8
  %4 = getelementptr inbounds %class.G1CMRootMemRegions, ptr %3, i32 0, i32 2
  store volatile i64 0, ptr %4, align 8
  ret void
}

; Function Attrs: mustprogress nounwind uwtable
define linkonce_odr hidden void @_ZN17G1RegionMarkStats5clearEv(ptr noundef nonnull align 8 dereferenceable(8) %0) #1 comdat align 2 {
  %2 = alloca ptr, align 8
  store ptr %0, ptr %2, align 8
  %3 = load ptr, ptr %2, align 8
  %4 = getelementptr inbounds %struct.G1RegionMarkStats, ptr %3, i32 0, i32 0
  store i64 0, ptr %4, align 8
  ret void
}

; Function Attrs: mustprogress nounwind uwtable
define linkonce_odr hidden noundef i32 @_ZNK15G1CollectedHeap20max_reserved_regionsEv(ptr noundef nonnull align 8 dereferenceable(1488) %0) #1 comdat align 2 {
  %2 = alloca ptr, align 8
  store ptr %0, ptr %2, align 8
  %3 = load ptr, ptr %2, align 8
  %4 = getelementptr inbounds %class.G1CollectedHeap, ptr %3, i32 0, i32 14
  %5 = call noundef i32 @_ZNK19G1HeapRegionManager15reserved_lengthEv(ptr noundef nonnull align 8 dereferenceable(232) %4)
  ret i32 %5
}

; Function Attrs: mustprogress nounwind uwtable
define hidden void @_ZN8G1CMTask5resetEP10G1CMBitMap(ptr noundef nonnull align 8 dereferenceable(376) %0, ptr noundef %1) #1 align 2 {
  %3 = alloca ptr, align 8
  %4 = alloca ptr, align 8
  store ptr %0, ptr %3, align 8
  store ptr %1, ptr %4, align 8
  %5 = load ptr, ptr %3, align 8
  br label %6

6:                                                ; preds = %2
  %7 = load ptr, ptr %4, align 8
  %8 = icmp ne ptr %7, null
  br i1 %8, label %11, label %9

9:                                                ; preds = %6
  %10 = load ptr, ptr @g_assert_poison, align 8
  store i8 88, ptr %10, align 1
  call void (ptr, i32, ptr, ptr, ...) @_Z15report_vm_errorPKciS0_S0_z(ptr noundef @.str, i32 noundef 2206, ptr noundef @.str.69, ptr noundef @.str.23) #12
  unreachable

11:                                               ; preds = %6
  br label %12

12:                                               ; preds = %11
  %13 = load ptr, ptr %4, align 8
  %14 = getelementptr inbounds %class.G1CMTask, ptr %5, i32 0, i32 5
  store ptr %13, ptr %14, align 8
  call void @_ZN8G1CMTask19clear_region_fieldsEv(ptr noundef nonnull align 8 dereferenceable(376) %5)
  %15 = getelementptr inbounds %class.G1CMTask, ptr %5, i32 0, i32 8
  store i32 0, ptr %15, align 8
  %16 = getelementptr inbounds %class.G1CMTask, ptr %5, i32 0, i32 25
  store double 0.000000e+00, ptr %16, align 8
  %17 = getelementptr inbounds %class.G1CMTask, ptr %5, i32 0, i32 26
  store double 0.000000e+00, ptr %17, align 8
  %18 = getelementptr inbounds %class.G1CMTask, ptr %5, i32 0, i32 7
  call void @_ZN22G1RegionMarkStatsCache5resetEv(ptr noundef nonnull align 8 dereferenceable(48) %18)
  ret void
}

; Function Attrs: mustprogress nounwind uwtable
define linkonce_odr hidden noundef ptr @_ZNK16G1ConcurrentMark11mark_bitmapEv(ptr noundef nonnull align 8 dereferenceable(1849) %0) #1 comdat align 2 {
  %2 = alloca ptr, align 8
  store ptr %0, ptr %2, align 8
  %3 = load ptr, ptr %2, align 8
  %4 = getelementptr inbounds %class.G1ConcurrentMark, ptr %3, i32 0, i32 2
  ret ptr %4
}

; Function Attrs: mustprogress nounwind uwtable
define hidden void @_ZN16G1ConcurrentMark5resetEv(ptr noundef nonnull align 8 dereferenceable(1849) %0) #1 align 2 {
  %2 = alloca ptr, align 8
  %3 = alloca i32, align 4
  %4 = alloca i32, align 4
  %5 = alloca i32, align 4
  store ptr %0, ptr %2, align 8
  %6 = load ptr, ptr %2, align 8
  %7 = getelementptr inbounds %class.G1ConcurrentMark, ptr %6, i32 0, i32 19
  store volatile i8 0, ptr %7, align 2
  call void @_ZN16G1ConcurrentMark25reset_marking_for_restartEv(ptr noundef nonnull align 8 dereferenceable(1849) %6)
  store i32 0, ptr %3, align 4
  br label %8

8:                                                ; preds = %21, %1
  %9 = load i32, ptr %3, align 4
  %10 = getelementptr inbounds %class.G1ConcurrentMark, ptr %6, i32 0, i32 8
  %11 = load i32, ptr %10, align 4
  %12 = icmp ult i32 %9, %11
  br i1 %12, label %13, label %24

13:                                               ; preds = %8
  %14 = getelementptr inbounds %class.G1ConcurrentMark, ptr %6, i32 0, i32 11
  %15 = load ptr, ptr %14, align 8
  %16 = load i32, ptr %3, align 4
  %17 = zext i32 %16 to i64
  %18 = getelementptr inbounds ptr, ptr %15, i64 %17
  %19 = load ptr, ptr %18, align 8
  %20 = call noundef ptr @_ZNK16G1ConcurrentMark11mark_bitmapEv(ptr noundef nonnull align 8 dereferenceable(1849) %6)
  call void @_ZN8G1CMTask5resetEP10G1CMBitMap(ptr noundef nonnull align 8 dereferenceable(376) %19, ptr noundef %20)
  br label %21

21:                                               ; preds = %13
  %22 = load i32, ptr %3, align 4
  %23 = add i32 %22, 1
  store i32 %23, ptr %3, align 4
  br label %8, !llvm.loop !17

24:                                               ; preds = %8
  %25 = getelementptr inbounds %class.G1ConcurrentMark, ptr %6, i32 0, i32 1
  %26 = load ptr, ptr %25, align 8
  %27 = call noundef i32 @_ZNK15G1CollectedHeap20max_reserved_regionsEv(ptr noundef nonnull align 8 dereferenceable(1488) %26)
  store i32 %27, ptr %4, align 4
  store i32 0, ptr %5, align 4
  br label %28

28:                                               ; preds = %43, %24
  %29 = load i32, ptr %5, align 4
  %30 = load i32, ptr %4, align 4
  %31 = icmp ult i32 %29, %30
  br i1 %31, label %32, label %46

32:                                               ; preds = %28
  %33 = getelementptr inbounds %class.G1ConcurrentMark, ptr %6, i32 0, i32 33
  %34 = load ptr, ptr %33, align 8
  %35 = load i32, ptr %5, align 4
  %36 = zext i32 %35 to i64
  %37 = getelementptr inbounds ptr, ptr %34, i64 %36
  store volatile ptr null, ptr %37, align 8
  %38 = getelementptr inbounds %class.G1ConcurrentMark, ptr %6, i32 0, i32 31
  %39 = load ptr, ptr %38, align 8
  %40 = load i32, ptr %5, align 4
  %41 = zext i32 %40 to i64
  %42 = getelementptr inbounds %struct.G1RegionMarkStats, ptr %39, i64 %41
  call void @_ZN17G1RegionMarkStats5clearEv(ptr noundef nonnull align 8 dereferenceable(8) %42)
  br label %43

43:                                               ; preds = %32
  %44 = load i32, ptr %5, align 4
  %45 = add i32 %44, 1
  store i32 %45, ptr %5, align 4
  br label %28, !llvm.loop !18

46:                                               ; preds = %28
  %47 = getelementptr inbounds %class.G1ConcurrentMark, ptr %6, i32 0, i32 4
  call void @_ZN18G1CMRootMemRegions5resetEv(ptr noundef nonnull align 8 dereferenceable(34) %47)
  ret void
}