; Function Attrs: mustprogress nounwind uwtable
define hidden void @_ZN16G1ConcurrentMark5resetEv(ptr noundef nonnull align 8 dereferenceable(1849) %0) local_unnamed_addr #0 align 2 {
  %2 = getelementptr inbounds i8, ptr %0, i64 1494
  store volatile i8 0, ptr %2, align 2
  tail call void @_ZN16G1ConcurrentMark25reset_marking_for_restartEv(ptr noundef nonnull align 8 dereferenceable(1849) %0)
  %3 = getelementptr inbounds i8, ptr %0, i64 836
  %4 = load i32, ptr %3, align 4
  %.not = icmp eq i32 %4, 0
  br i1 %.not, label %._crit_edge, label %.lr.ph

.lr.ph:                                           ; preds = %1
  %5 = getelementptr inbounds i8, ptr %0, i64 848
  %6 = getelementptr inbounds i8, ptr %0, i64 16
  br label %7

7:                                                ; preds = %.lr.ph, %7
  %indvars.iv = phi i64 [ 0, %.lr.ph ], [ %indvars.iv.next, %7 ]
  %8 = load ptr, ptr %5, align 8
  %9 = getelementptr inbounds ptr, ptr %8, i64 %indvars.iv
  %10 = load ptr, ptr %9, align 8
  %11 = getelementptr inbounds i8, ptr %10, i64 40
  store ptr %6, ptr %11, align 8
  %12 = getelementptr inbounds i8, ptr %10, i64 136
  tail call void @llvm.memset.p0.i64(ptr noundef nonnull align 8 dereferenceable(24) %12, i8 0, i64 24, i1 false)
  %13 = getelementptr inbounds i8, ptr %10, i64 104
  store i32 0, ptr %13, align 8
  %14 = getelementptr inbounds i8, ptr %10, i64 288
  %15 = getelementptr inbounds i8, ptr %10, i64 56
  tail call void @llvm.memset.p0.i64(ptr noundef nonnull align 8 dereferenceable(16) %14, i8 0, i64 16, i1 false)
  tail call void @_ZN22G1RegionMarkStatsCache5resetEv(ptr noundef nonnull align 8 dereferenceable(48) %15) #22
  %indvars.iv.next = add nuw nsw i64 %indvars.iv, 1
  %16 = load i32, ptr %3, align 4
  %17 = zext i32 %16 to i64
  %18 = icmp ult i64 %indvars.iv.next, %17
  br i1 %18, label %7, label %._crit_edge, !llvm.loop !22

._crit_edge:                                      ; preds = %7, %1
  %19 = getelementptr inbounds i8, ptr %0, i64 8
  %20 = load ptr, ptr %19, align 8
  %21 = getelementptr inbounds i8, ptr %20, i64 504
  %22 = load i64, ptr %21, align 8
  %23 = and i64 %22, 4294967295
  %.not14 = icmp eq i64 %23, 0
  br i1 %.not14, label %._crit_edge13, label %.lr.ph12

.lr.ph12:                                         ; preds = %._crit_edge
  %24 = getelementptr inbounds i8, ptr %0, i64 1840
  %25 = getelementptr inbounds i8, ptr %0, i64 1824
  %wide.trip.count = and i64 %22, 4294967295
  br label %26

26:                                               ; preds = %.lr.ph12, %26
  %indvars.iv16 = phi i64 [ 0, %.lr.ph12 ], [ %indvars.iv.next17, %26 ]
  %27 = load ptr, ptr %24, align 8
  %28 = getelementptr inbounds ptr, ptr %27, i64 %indvars.iv16
  store volatile ptr null, ptr %28, align 8
  %29 = load ptr, ptr %25, align 8
  %30 = getelementptr inbounds %struct.G1RegionMarkStats, ptr %29, i64 %indvars.iv16
  store i64 0, ptr %30, align 8
  %indvars.iv.next17 = add nuw nsw i64 %indvars.iv16, 1
  %exitcond.not = icmp eq i64 %indvars.iv.next17, %wide.trip.count
  br i1 %exitcond.not, label %._crit_edge13, label %26, !llvm.loop !23

._crit_edge13:                                    ; preds = %26, %._crit_edge
  %31 = getelementptr inbounds i8, ptr %0, i64 112
  store volatile i64 0, ptr %31, align 8
  ret void
}